
./another-pass:     file format elf64-x86-64


Disassembly of section .init:

0000000000000658 <_init>:
 658:	48 83 ec 08          	sub    $0x8,%rsp
 65c:	48 8b 05 85 09 20 00 	mov    0x200985(%rip),%rax        # 200fe8 <__gmon_start__>
 663:	48 85 c0             	test   %rax,%rax
 666:	74 02                	je     66a <_init+0x12>
 668:	ff d0                	callq  *%rax
 66a:	48 83 c4 08          	add    $0x8,%rsp
 66e:	c3                   	retq   

Disassembly of section .plt:

0000000000000670 <.plt>:
 670:	ff 35 22 09 20 00    	pushq  0x200922(%rip)        # 200f98 <_GLOBAL_OFFSET_TABLE_+0x8>
 676:	ff 25 24 09 20 00    	jmpq   *0x200924(%rip)        # 200fa0 <_GLOBAL_OFFSET_TABLE_+0x10>
 67c:	0f 1f 40 00          	nopl   0x0(%rax)

0000000000000680 <putchar@plt>:
 680:	ff 25 22 09 20 00    	jmpq   *0x200922(%rip)        # 200fa8 <putchar@GLIBC_2.2.5>
 686:	68 00 00 00 00       	pushq  $0x0
 68b:	e9 e0 ff ff ff       	jmpq   670 <.plt>

0000000000000690 <strlen@plt>:
 690:	ff 25 1a 09 20 00    	jmpq   *0x20091a(%rip)        # 200fb0 <strlen@GLIBC_2.2.5>
 696:	68 01 00 00 00       	pushq  $0x1
 69b:	e9 d0 ff ff ff       	jmpq   670 <.plt>

00000000000006a0 <__stack_chk_fail@plt>:
 6a0:	ff 25 12 09 20 00    	jmpq   *0x200912(%rip)        # 200fb8 <__stack_chk_fail@GLIBC_2.4>
 6a6:	68 02 00 00 00       	pushq  $0x2
 6ab:	e9 c0 ff ff ff       	jmpq   670 <.plt>

00000000000006b0 <printf@plt>:
 6b0:	ff 25 0a 09 20 00    	jmpq   *0x20090a(%rip)        # 200fc0 <printf@GLIBC_2.2.5>
 6b6:	68 03 00 00 00       	pushq  $0x3
 6bb:	e9 b0 ff ff ff       	jmpq   670 <.plt>

00000000000006c0 <__isoc99_sscanf@plt>:
 6c0:	ff 25 02 09 20 00    	jmpq   *0x200902(%rip)        # 200fc8 <__isoc99_sscanf@GLIBC_2.7>
 6c6:	68 04 00 00 00       	pushq  $0x4
 6cb:	e9 a0 ff ff ff       	jmpq   670 <.plt>

00000000000006d0 <__isoc99_scanf@plt>:
 6d0:	ff 25 fa 08 20 00    	jmpq   *0x2008fa(%rip)        # 200fd0 <__isoc99_scanf@GLIBC_2.7>
 6d6:	68 05 00 00 00       	pushq  $0x5
 6db:	e9 90 ff ff ff       	jmpq   670 <.plt>

Disassembly of section .plt.got:

00000000000006e0 <__cxa_finalize@plt>:
 6e0:	ff 25 12 09 20 00    	jmpq   *0x200912(%rip)        # 200ff8 <__cxa_finalize@GLIBC_2.2.5>
 6e6:	66 90                	xchg   %ax,%ax

Disassembly of section .text:

00000000000006f0 <_start>:
 6f0:	31 ed                	xor    %ebp,%ebp
 6f2:	49 89 d1             	mov    %rdx,%r9
 6f5:	5e                   	pop    %rsi
 6f6:	48 89 e2             	mov    %rsp,%rdx
 6f9:	48 83 e4 f0          	and    $0xfffffffffffffff0,%rsp
 6fd:	50                   	push   %rax
 6fe:	54                   	push   %rsp
 6ff:	4c 8d 05 9a 02 00 00 	lea    0x29a(%rip),%r8        # 9a0 <__libc_csu_fini>
 706:	48 8d 0d 23 02 00 00 	lea    0x223(%rip),%rcx        # 930 <__libc_csu_init>
 70d:	48 8d 3d a7 01 00 00 	lea    0x1a7(%rip),%rdi        # 8bb <main>
 714:	ff 15 c6 08 20 00    	callq  *0x2008c6(%rip)        # 200fe0 <__libc_start_main@GLIBC_2.2.5>
 71a:	f4                   	hlt    
 71b:	0f 1f 44 00 00       	nopl   0x0(%rax,%rax,1)

0000000000000720 <deregister_tm_clones>:
 720:	48 8d 3d e9 08 20 00 	lea    0x2008e9(%rip),%rdi        # 201010 <__TMC_END__>
 727:	55                   	push   %rbp
 728:	48 8d 05 e1 08 20 00 	lea    0x2008e1(%rip),%rax        # 201010 <__TMC_END__>
 72f:	48 39 f8             	cmp    %rdi,%rax
 732:	48 89 e5             	mov    %rsp,%rbp
 735:	74 19                	je     750 <deregister_tm_clones+0x30>
 737:	48 8b 05 9a 08 20 00 	mov    0x20089a(%rip),%rax        # 200fd8 <_ITM_deregisterTMCloneTable>
 73e:	48 85 c0             	test   %rax,%rax
 741:	74 0d                	je     750 <deregister_tm_clones+0x30>
 743:	5d                   	pop    %rbp
 744:	ff e0                	jmpq   *%rax
 746:	66 2e 0f 1f 84 00 00 	nopw   %cs:0x0(%rax,%rax,1)
 74d:	00 00 00 
 750:	5d                   	pop    %rbp
 751:	c3                   	retq   
 752:	0f 1f 40 00          	nopl   0x0(%rax)
 756:	66 2e 0f 1f 84 00 00 	nopw   %cs:0x0(%rax,%rax,1)
 75d:	00 00 00 

0000000000000760 <register_tm_clones>:
 760:	48 8d 3d a9 08 20 00 	lea    0x2008a9(%rip),%rdi        # 201010 <__TMC_END__>
 767:	48 8d 35 a2 08 20 00 	lea    0x2008a2(%rip),%rsi        # 201010 <__TMC_END__>
 76e:	55                   	push   %rbp
 76f:	48 29 fe             	sub    %rdi,%rsi
 772:	48 89 e5             	mov    %rsp,%rbp
 775:	48 c1 fe 03          	sar    $0x3,%rsi
 779:	48 89 f0             	mov    %rsi,%rax
 77c:	48 c1 e8 3f          	shr    $0x3f,%rax
 780:	48 01 c6             	add    %rax,%rsi
 783:	48 d1 fe             	sar    %rsi
 786:	74 18                	je     7a0 <register_tm_clones+0x40>
 788:	48 8b 05 61 08 20 00 	mov    0x200861(%rip),%rax        # 200ff0 <_ITM_registerTMCloneTable>
 78f:	48 85 c0             	test   %rax,%rax
 792:	74 0c                	je     7a0 <register_tm_clones+0x40>
 794:	5d                   	pop    %rbp
 795:	ff e0                	jmpq   *%rax
 797:	66 0f 1f 84 00 00 00 	nopw   0x0(%rax,%rax,1)
 79e:	00 00 
 7a0:	5d                   	pop    %rbp
 7a1:	c3                   	retq   
 7a2:	0f 1f 40 00          	nopl   0x0(%rax)
 7a6:	66 2e 0f 1f 84 00 00 	nopw   %cs:0x0(%rax,%rax,1)
 7ad:	00 00 00 

00000000000007b0 <__do_global_dtors_aux>:
 7b0:	80 3d 59 08 20 00 00 	cmpb   $0x0,0x200859(%rip)        # 201010 <__TMC_END__>
 7b7:	75 2f                	jne    7e8 <__do_global_dtors_aux+0x38>
 7b9:	48 83 3d 37 08 20 00 	cmpq   $0x0,0x200837(%rip)        # 200ff8 <__cxa_finalize@GLIBC_2.2.5>
 7c0:	00 
 7c1:	55                   	push   %rbp
 7c2:	48 89 e5             	mov    %rsp,%rbp
 7c5:	74 0c                	je     7d3 <__do_global_dtors_aux+0x23>
 7c7:	48 8b 3d 3a 08 20 00 	mov    0x20083a(%rip),%rdi        # 201008 <__dso_handle>
 7ce:	e8 0d ff ff ff       	callq  6e0 <__cxa_finalize@plt>
 7d3:	e8 48 ff ff ff       	callq  720 <deregister_tm_clones>
 7d8:	c6 05 31 08 20 00 01 	movb   $0x1,0x200831(%rip)        # 201010 <__TMC_END__>
 7df:	5d                   	pop    %rbp
 7e0:	c3                   	retq   
 7e1:	0f 1f 80 00 00 00 00 	nopl   0x0(%rax)
 7e8:	f3 c3                	repz retq 
 7ea:	66 0f 1f 44 00 00    	nopw   0x0(%rax,%rax,1)

00000000000007f0 <frame_dummy>:
 7f0:	55                   	push   %rbp
 7f1:	48 89 e5             	mov    %rsp,%rbp
 7f4:	5d                   	pop    %rbp
 7f5:	e9 66 ff ff ff       	jmpq   760 <register_tm_clones>

00000000000007fa <checkInput>:
 7fa:	55                   	push   %rbp
 7fb:	48 89 e5             	mov    %rsp,%rbp
 7fe:	53                   	push   %rbx
 7ff:	48 83 ec 38          	sub    $0x38,%rsp
 803:	48 89 7d c8          	mov    %rdi,-0x38(%rbp)
 807:	64 48 8b 04 25 28 00 	mov    %fs:0x28,%rax
 80e:	00 00 
 810:	48 89 45 e8          	mov    %rax,-0x18(%rbp)
 814:	31 c0                	xor    %eax,%eax
 816:	c7 45 e0 00 00 00 00 	movl   $0x0,-0x20(%rbp)
 81d:	c7 45 e4 00 00 00 00 	movl   $0x0,-0x1c(%rbp)
 824:	eb 52                	jmp    878 <checkInput+0x7e>
 826:	8b 45 e4             	mov    -0x1c(%rbp),%eax
 829:	48 63 d0             	movslq %eax,%rdx
 82c:	48 8b 45 c8          	mov    -0x38(%rbp),%rax
 830:	48 01 d0             	add    %rdx,%rax
 833:	0f b6 00             	movzbl (%rax),%eax
 836:	88 45 db             	mov    %al,-0x25(%rbp)
 839:	48 8d 55 dc          	lea    -0x24(%rbp),%rdx
 83d:	48 8d 45 db          	lea    -0x25(%rbp),%rax
 841:	48 8d 35 6c 01 00 00 	lea    0x16c(%rip),%rsi        # 9b4 <_IO_stdin_used+0x4>
 848:	48 89 c7             	mov    %rax,%rdi
 84b:	b8 00 00 00 00       	mov    $0x0,%eax
 850:	e8 6b fe ff ff       	callq  6c0 <__isoc99_sscanf@plt>
 855:	8b 45 dc             	mov    -0x24(%rbp),%eax
 858:	01 45 e0             	add    %eax,-0x20(%rbp)
 85b:	83 7d e0 4b          	cmpl   $0x4b,-0x20(%rbp)
 85f:	75 13                	jne    874 <checkInput+0x7a>
 861:	48 8d 3d 4f 01 00 00 	lea    0x14f(%rip),%rdi        # 9b7 <_IO_stdin_used+0x7>
 868:	b8 00 00 00 00       	mov    $0x0,%eax
 86d:	e8 3e fe ff ff       	callq  6b0 <printf@plt>
 872:	eb 2c                	jmp    8a0 <checkInput+0xa6>
 874:	83 45 e4 01          	addl   $0x1,-0x1c(%rbp)
 878:	8b 45 e4             	mov    -0x1c(%rbp),%eax
 87b:	48 63 d8             	movslq %eax,%rbx
 87e:	48 8b 45 c8          	mov    -0x38(%rbp),%rax
 882:	48 89 c7             	mov    %rax,%rdi
 885:	e8 06 fe ff ff       	callq  690 <strlen@plt>
 88a:	48 39 c3             	cmp    %rax,%rbx
 88d:	72 97                	jb     826 <checkInput+0x2c>
 88f:	48 8d 3d 2a 01 00 00 	lea    0x12a(%rip),%rdi        # 9c0 <_IO_stdin_used+0x10>
 896:	b8 00 00 00 00       	mov    $0x0,%eax
 89b:	e8 10 fe ff ff       	callq  6b0 <printf@plt>
 8a0:	48 8b 45 e8          	mov    -0x18(%rbp),%rax
 8a4:	64 48 33 04 25 28 00 	xor    %fs:0x28,%rax
 8ab:	00 00 
 8ad:	74 05                	je     8b4 <checkInput+0xba>
 8af:	e8 ec fd ff ff       	callq  6a0 <__stack_chk_fail@plt>
 8b4:	48 83 c4 38          	add    $0x38,%rsp
 8b8:	5b                   	pop    %rbx
 8b9:	5d                   	pop    %rbp
 8ba:	c3                   	retq   

00000000000008bb <main>:
 8bb:	55                   	push   %rbp
 8bc:	48 89 e5             	mov    %rsp,%rbp
 8bf:	48 83 ec 40          	sub    $0x40,%rsp
 8c3:	64 48 8b 04 25 28 00 	mov    %fs:0x28,%rax
 8ca:	00 00 
 8cc:	48 89 45 f8          	mov    %rax,-0x8(%rbp)
 8d0:	31 c0                	xor    %eax,%eax
 8d2:	48 8d 3d f2 00 00 00 	lea    0xf2(%rip),%rdi        # 9cb <_IO_stdin_used+0x1b>
 8d9:	b8 00 00 00 00       	mov    $0x0,%eax
 8de:	e8 cd fd ff ff       	callq  6b0 <printf@plt>
 8e3:	48 8d 45 c0          	lea    -0x40(%rbp),%rax
 8e7:	48 89 c6             	mov    %rax,%rsi
 8ea:	48 8d 3d e1 00 00 00 	lea    0xe1(%rip),%rdi        # 9d2 <_IO_stdin_used+0x22>
 8f1:	b8 00 00 00 00       	mov    $0x0,%eax
 8f6:	e8 d5 fd ff ff       	callq  6d0 <__isoc99_scanf@plt>
 8fb:	48 8d 45 c0          	lea    -0x40(%rbp),%rax
 8ff:	48 89 c7             	mov    %rax,%rdi
 902:	e8 f3 fe ff ff       	callq  7fa <checkInput>
 907:	bf 0a 00 00 00       	mov    $0xa,%edi
 90c:	e8 6f fd ff ff       	callq  680 <putchar@plt>
 911:	b8 00 00 00 00       	mov    $0x0,%eax
 916:	48 8b 55 f8          	mov    -0x8(%rbp),%rdx
 91a:	64 48 33 14 25 28 00 	xor    %fs:0x28,%rdx
 921:	00 00 
 923:	74 05                	je     92a <main+0x6f>
 925:	e8 76 fd ff ff       	callq  6a0 <__stack_chk_fail@plt>
 92a:	c9                   	leaveq 
 92b:	c3                   	retq   
 92c:	0f 1f 40 00          	nopl   0x0(%rax)

0000000000000930 <__libc_csu_init>:
 930:	41 57                	push   %r15
 932:	41 56                	push   %r14
 934:	49 89 d7             	mov    %rdx,%r15
 937:	41 55                	push   %r13
 939:	41 54                	push   %r12
 93b:	4c 8d 25 4e 04 20 00 	lea    0x20044e(%rip),%r12        # 200d90 <__frame_dummy_init_array_entry>
 942:	55                   	push   %rbp
 943:	48 8d 2d 4e 04 20 00 	lea    0x20044e(%rip),%rbp        # 200d98 <__init_array_end>
 94a:	53                   	push   %rbx
 94b:	41 89 fd             	mov    %edi,%r13d
 94e:	49 89 f6             	mov    %rsi,%r14
 951:	4c 29 e5             	sub    %r12,%rbp
 954:	48 83 ec 08          	sub    $0x8,%rsp
 958:	48 c1 fd 03          	sar    $0x3,%rbp
 95c:	e8 f7 fc ff ff       	callq  658 <_init>
 961:	48 85 ed             	test   %rbp,%rbp
 964:	74 20                	je     986 <__libc_csu_init+0x56>
 966:	31 db                	xor    %ebx,%ebx
 968:	0f 1f 84 00 00 00 00 	nopl   0x0(%rax,%rax,1)
 96f:	00 
 970:	4c 89 fa             	mov    %r15,%rdx
 973:	4c 89 f6             	mov    %r14,%rsi
 976:	44 89 ef             	mov    %r13d,%edi
 979:	41 ff 14 dc          	callq  *(%r12,%rbx,8)
 97d:	48 83 c3 01          	add    $0x1,%rbx
 981:	48 39 dd             	cmp    %rbx,%rbp
 984:	75 ea                	jne    970 <__libc_csu_init+0x40>
 986:	48 83 c4 08          	add    $0x8,%rsp
 98a:	5b                   	pop    %rbx
 98b:	5d                   	pop    %rbp
 98c:	41 5c                	pop    %r12
 98e:	41 5d                	pop    %r13
 990:	41 5e                	pop    %r14
 992:	41 5f                	pop    %r15
 994:	c3                   	retq   
 995:	90                   	nop
 996:	66 2e 0f 1f 84 00 00 	nopw   %cs:0x0(%rax,%rax,1)
 99d:	00 00 00 

00000000000009a0 <__libc_csu_fini>:
 9a0:	f3 c3                	repz retq 

Disassembly of section .fini:

00000000000009a4 <_fini>:
 9a4:	48 83 ec 08          	sub    $0x8,%rsp
 9a8:	48 83 c4 08          	add    $0x8,%rsp
 9ac:	c3                   	retq   
